target datalayout = "e-m:e-p270:32:32-p271:32:32-p272:64:64-i64:64-i128:128-f80:128-n8:16:32:64-S128"
target triple = "x86_64-pc-linux-gnu"

@btavrcp_song_positions = hidden global ptr null, align 8
@reassembling = internal global ptr null, align 8
@timing = internal global ptr null, align 8
@.str.310 = private unnamed_addr constant [24 x i8] c"Bluetooth AVRCP Profile\00", align 1
@.str.311 = private unnamed_addr constant [9 x i8] c"BT AVRCP\00", align 1
@.str.312 = private unnamed_addr constant [8 x i8] c"btavrcp\00", align 1
@proto_btavrcp = internal global i32 0, align 4
@btavrcp_handle = internal global ptr null, align 8
@.str.313 = private unnamed_addr constant [10 x i8] c"Bluetooth\00", align 1
@.str.314 = private unnamed_addr constant [14 x i8] c"avrcp.version\00", align 1
@.str.315 = private unnamed_addr constant [37 x i8] c"Bluetooth Profile AVRCP version: 1.5\00", align 1
@.str.316 = private unnamed_addr constant [48 x i8] c"Version of profile supported by this dissector.\00", align 1

; Function Attrs: null_pointer_is_valid sspstrong uwtable
define hidden void @proto_register_btavrcp() #0 {
  %1 = alloca ptr, align 8
  %2 = alloca ptr, align 8
  call void @llvm.lifetime.start.p0(i64 8, ptr %1) #9
  call void @llvm.lifetime.start.p0(i64 8, ptr %2) #9
  %3 = call ptr @wmem_epan_scope()
  %4 = call ptr @wmem_file_scope()
  %5 = call noalias ptr @wmem_tree_new_autoreset(ptr noundef %3, ptr noundef %4)
  store ptr %5, ptr @reassembling, align 8
  %6 = call ptr @wmem_epan_scope()
  %7 = call ptr @wmem_file_scope()
  %8 = call noalias ptr @wmem_tree_new_autoreset(ptr noundef %6, ptr noundef %7)
  store ptr %8, ptr @timing, align 8
  %9 = call ptr @wmem_epan_scope()
  %10 = call ptr @wmem_file_scope()
  %11 = call noalias ptr @wmem_tree_new_autoreset(ptr noundef %9, ptr noundef %10)
  store ptr %11, ptr @btavrcp_song_positions, align 8
  %12 = call i32 @proto_register_protocol(ptr noundef @.str.310, ptr noundef @.str.311, ptr noundef @.str.312)
  store i32 %12, ptr @proto_btavrcp, align 4
  %13 = load i32, ptr @proto_btavrcp, align 4
  %14 = call ptr @register_dissector(ptr noundef @.str.312, ptr noundef @dissect_btavrcp, i32 noundef %13)
  store ptr %14, ptr @btavrcp_handle, align 8
  %15 = load i32, ptr @proto_btavrcp, align 4
  call void @proto_register_field_array(i32 noundef %15, ptr noundef @proto_register_btavrcp.hf, i32 noundef 164)
  call void @proto_register_subtree_array(ptr noundef @proto_register_btavrcp.ett, i32 noundef 10)
  %16 = load i32, ptr @proto_btavrcp, align 4
  %17 = call ptr @expert_register_protocol(i32 noundef %16)
  store ptr %17, ptr %2, align 8
  %18 = load ptr, ptr %2, align 8
  call void @expert_register_field_array(ptr noundef %18, ptr noundef @proto_register_btavrcp.ei, i32 noundef 3)
  %19 = load i32, ptr @proto_btavrcp, align 4
  %20 = call ptr @prefs_register_protocol_subtree(ptr noundef @.str.313, i32 noundef %19, ptr noundef null)
  store ptr %20, ptr %1, align 8
  %21 = load ptr, ptr %1, align 8
  call void @prefs_register_static_text_preference(ptr noundef %21, ptr noundef @.str.314, ptr noundef @.str.315, ptr noundef @.str.316)
  call void @llvm.lifetime.end.p0(i64 8, ptr %2) #9
  call void @llvm.lifetime.end.p0(i64 8, ptr %1) #9
  ret void
}