; Function Attrs: null_pointer_is_valid sspstrong uwtable
define hidden void @proto_register_btavrcp() local_unnamed_addr #0 {
  %1 = tail call ptr @wmem_epan_scope()
  %2 = tail call ptr @wmem_file_scope()
  %3 = tail call noalias ptr @wmem_tree_new_autoreset(ptr noundef %1, ptr noundef %2)
  store ptr %3, ptr @reassembling, align 8
  %4 = tail call ptr @wmem_epan_scope()
  %5 = tail call ptr @wmem_file_scope()
  %6 = tail call noalias ptr @wmem_tree_new_autoreset(ptr noundef %4, ptr noundef %5)
  store ptr %6, ptr @timing, align 8
  %7 = tail call ptr @wmem_epan_scope()
  %8 = tail call ptr @wmem_file_scope()
  %9 = tail call noalias ptr @wmem_tree_new_autoreset(ptr noundef %7, ptr noundef %8)
  store ptr %9, ptr @btavrcp_song_positions, align 8
  %10 = tail call i32 @proto_register_protocol(ptr noundef nonnull @.str.310, ptr noundef nonnull @.str.311, ptr noundef nonnull @.str.312)
  store i32 %10, ptr @proto_btavrcp, align 4
  %11 = tail call ptr @register_dissector(ptr noundef nonnull @.str.312, ptr noundef nonnull @dissect_btavrcp, i32 noundef %10)
  store ptr %11, ptr @btavrcp_handle, align 8
  %12 = load i32, ptr @proto_btavrcp, align 4
  tail call void @proto_register_field_array(i32 noundef %12, ptr noundef nonnull @proto_register_btavrcp.hf, i32 noundef 164)
  tail call void @proto_register_subtree_array(ptr noundef nonnull @proto_register_btavrcp.ett, i32 noundef 10)
  %13 = load i32, ptr @proto_btavrcp, align 4
  %14 = tail call ptr @expert_register_protocol(i32 noundef %13)
  tail call void @expert_register_field_array(ptr noundef %14, ptr noundef nonnull @proto_register_btavrcp.ei, i32 noundef 3)
  %15 = load i32, ptr @proto_btavrcp, align 4
  %16 = tail call ptr @prefs_register_protocol_subtree(ptr noundef nonnull @.str.313, i32 noundef %15, ptr noundef null)
  tail call void @prefs_register_static_text_preference(ptr noundef %16, ptr noundef nonnull @.str.314, ptr noundef nonnull @.str.315, ptr noundef nonnull @.str.316)
  ret void
}